; Function Attrs: mustprogress uwtable
define noundef i64 @_ZN8proxygen26PassThroughHTTPCodecFilter12generateBodyERN5folly10IOBufQueueEmSt10unique_ptrINS1_5IOBufESt14default_deleteIS5_EENS1_8OptionalIhEEb(ptr nocapture noundef nonnull readonly align 8 dereferenceable(72) %this, ptr noundef nonnull align 8 dereferenceable(72) %writeBuf, i64 noundef %stream, ptr nocapture noundef %chain, ptr nocapture noundef readonly %padding, i1 noundef zeroext %eom) unnamed_addr #3 align 2 personality ptr @__gxx_personality_v0 {
entry:
  %agg.tmp = alloca %"class.std::unique_ptr.2", align 8
  %agg.tmp2 = alloca %"class.folly::Optional.68", align 1
  %call_ = getelementptr inbounds i8, ptr %this, i64 24
  %0 = load ptr, ptr %call_, align 8
  %1 = load i64, ptr %chain, align 8
  store i64 %1, ptr %agg.tmp, align 8
  store ptr null, ptr %chain, align 8
  store i8 0, ptr %agg.tmp2, align 1
  %hasValue.i.i = getelementptr inbounds i8, ptr %agg.tmp2, i64 1
  store i8 0, ptr %hasValue.i.i, align 1
  %hasValue.i.i.i = getelementptr inbounds i8, ptr %padding, i64 1
  %2 = load i8, ptr %hasValue.i.i.i, align 1
  %3 = and i8 %2, 1
  %tobool.i.i.not.i = icmp eq i8 %3, 0
  br i1 %tobool.i.i.not.i, label %_ZN5folly8OptionalIhEC2ERKS1_.exit, label %invoke.cont2.i

invoke.cont2.i:                                   ; preds = %entry
  %4 = load i8, ptr %padding, align 1
  store i8 %4, ptr %agg.tmp2, align 1
  store i8 1, ptr %hasValue.i.i, align 1
  br label %_ZN5folly8OptionalIhEC2ERKS1_.exit

_ZN5folly8OptionalIhEC2ERKS1_.exit:               ; preds = %entry, %invoke.cont2.i
  %vtable = load ptr, ptr %0, align 8
  %vfn = getelementptr inbounds i8, ptr %vtable, i64 208
  %5 = load ptr, ptr %vfn, align 8
  %call = invoke noundef i64 %5(ptr noundef nonnull align 8 dereferenceable(8) %0, ptr noundef nonnull align 8 dereferenceable(72) %writeBuf, i64 noundef %stream, ptr noundef nonnull %agg.tmp, ptr noundef nonnull %agg.tmp2, i1 noundef zeroext %eom)
          to label %invoke.cont unwind label %lpad

invoke.cont:                                      ; preds = %_ZN5folly8OptionalIhEC2ERKS1_.exit
  %6 = load ptr, ptr %agg.tmp, align 8
  %cmp.not.i = icmp eq ptr %6, null
  br i1 %cmp.not.i, label %_ZNSt10unique_ptrIN5folly5IOBufESt14default_deleteIS1_EED2Ev.exit, label %_ZNKSt14default_deleteIN5folly5IOBufEEclEPS1_.exit.i

_ZNKSt14default_deleteIN5folly5IOBufEEclEPS1_.exit.i: ; preds = %invoke.cont
  call void @_ZN5folly5IOBufD1Ev(ptr noundef nonnull align 8 dereferenceable(56) %6) #15
  call void @_ZN5folly5IOBufdlEPv(ptr noundef nonnull %6) #15
  br label %_ZNSt10unique_ptrIN5folly5IOBufESt14default_deleteIS1_EED2Ev.exit

_ZNSt10unique_ptrIN5folly5IOBufESt14default_deleteIS1_EED2Ev.exit: ; preds = %invoke.cont, %_ZNKSt14default_deleteIN5folly5IOBufEEclEPS1_.exit.i
  ret i64 %call

lpad:                                             ; preds = %_ZN5folly8OptionalIhEC2ERKS1_.exit
  %7 = landingpad { ptr, i32 }
          cleanup
  call void @_ZNSt10unique_ptrIN5folly5IOBufESt14default_deleteIS1_EED2Ev(ptr noundef nonnull align 8 dereferenceable(8) %agg.tmp) #15
  resume { ptr, i32 } %7
}